; Function Attrs: mustprogress uwtable
define hidden noundef zeroext i1 @_Z10get_pb_sumP4exprR10ref_vectorIS_11ast_managerER6vectorI8rationalLb1EjERS6_(ptr noundef %0, ptr noundef nonnull align 8 dereferenceable(16) %1, ptr noundef nonnull align 8 dereferenceable(8) %2, ptr noundef nonnull align 8 dereferenceable(32) %3) local_unnamed_addr #3 personality ptr @__gxx_personality_v0 {
  %5 = alloca %class.params_ref, align 8
  %6 = alloca %class.lia2card_tactic, align 8
  call void @llvm.lifetime.start.p0(i64 8, ptr nonnull %5) #20
  store ptr null, ptr %5, align 8, !tbaa !93
  %7 = load ptr, ptr %1, align 8, !tbaa !94
  call void @llvm.lifetime.start.p0(i64 792, ptr nonnull %6) #20
  invoke void @_ZN15lia2card_tacticC2ER11ast_managerRK10params_ref(ptr noundef nonnull align 8 dereferenceable(792) %6, ptr noundef nonnull align 8 dereferenceable(976) %7, ptr noundef nonnull align 8 dereferenceable(8) %5)
          to label %8 unwind label %11

8:                                                ; preds = %4
  %9 = invoke noundef zeroext i1 @_ZN15lia2card_tactic10get_pb_sumEP4exprRK8rationalR10ref_vectorIS0_11ast_managerER6vectorIS2_Lb1EjERS2_(ptr noundef nonnull align 8 dereferenceable(792) %6, ptr noundef %0, ptr noundef nonnull align 8 dereferenceable(32) @_ZN8rational5m_oneE, ptr noundef nonnull align 8 dereferenceable(16) %1, ptr noundef nonnull align 8 dereferenceable(8) %2, ptr noundef nonnull align 8 dereferenceable(32) %3)
          to label %10 unwind label %13

10:                                               ; preds = %8
  call void @_ZN15lia2card_tacticD2Ev(ptr noundef nonnull align 8 dereferenceable(792) %6) #20
  call void @llvm.lifetime.end.p0(i64 792, ptr nonnull %6) #20
  call void @_ZN10params_refD1Ev(ptr noundef nonnull align 8 dereferenceable(8) %5) #20
  call void @llvm.lifetime.end.p0(i64 8, ptr nonnull %5) #20
  ret i1 %9

11:                                               ; preds = %4
  %12 = landingpad { ptr, i32 }
          cleanup
  br label %15

13:                                               ; preds = %8
  %14 = landingpad { ptr, i32 }
          cleanup
  call void @_ZN15lia2card_tacticD2Ev(ptr noundef nonnull align 8 dereferenceable(792) %6) #20
  br label %15

15:                                               ; preds = %13, %11
  %.pn = phi { ptr, i32 } [ %14, %13 ], [ %12, %11 ]
  call void @llvm.lifetime.end.p0(i64 792, ptr nonnull %6) #20
  call void @_ZN10params_refD1Ev(ptr noundef nonnull align 8 dereferenceable(8) %5) #20
  call void @llvm.lifetime.end.p0(i64 8, ptr nonnull %5) #20
  resume { ptr, i32 } %.pn
}